; ModuleID = '17/482.c'
source_filename = "17/482.c"
target datalayout = "e-m:e-p270:32:32-p271:32:32-p272:64:64-i64:64-f80:128-n8:16:32:64-S128"
target triple = "x86_64-pc-linux-gnu"

@a = common dso_local global [110 x i8] zeroinitializer, align 16
@.str = private unnamed_addr constant [3 x i8] c"%s\00", align 1
@.str.1 = private unnamed_addr constant [4 x i8] c"%s\0A\00", align 1

; Function Attrs: noinline nounwind uwtable
define dso_local i32 @match(i32 %0) #0 {
  %2 = alloca i32, align 4
  %3 = alloca i32, align 4
  %4 = alloca i32, align 4
  %5 = alloca i32, align 4
  store i32 %0, i32* %3, align 4
  %6 = call i64 @strlen(i8* getelementptr inbounds ([110 x i8], [110 x i8]* @a, i64 0, i64 0)) #3
  %7 = trunc i64 %6 to i32
  store i32 %7, i32* %5, align 4
  %8 = load i32, i32* %3, align 4
  %9 = load i32, i32* %5, align 4
  %10 = icmp eq i32 %8, %9
  br i1 %10, label %11, label %12

11:                                               ; preds = %1
  store i32 0, i32* %2, align 4
  br label %48

12:                                               ; preds = %1
  %13 = load i32, i32* %3, align 4
  %14 = sext i32 %13 to i64
  %15 = getelementptr inbounds [110 x i8], [110 x i8]* @a, i64 0, i64 %14
  %16 = load i8, i8* %15, align 1
  %17 = sext i8 %16 to i32
  %18 = icmp eq i32 %17, 63
  br i1 %18, label %19, label %44

19:                                               ; preds = %12
  %20 = load i32, i32* %3, align 4
  %21 = sub nsw i32 %20, 1
  store i32 %21, i32* %4, align 4
  br label %22

22:                                               ; preds = %40, %19
  %23 = load i32, i32* %4, align 4
  %24 = icmp sge i32 %23, 0
  br i1 %24, label %25, label %43

25:                                               ; preds = %22
  %26 = load i32, i32* %4, align 4
  %27 = sext i32 %26 to i64
  %28 = getelementptr inbounds [110 x i8], [110 x i8]* @a, i64 0, i64 %27
  %29 = load i8, i8* %28, align 1
  %30 = sext i8 %29 to i32
  %31 = icmp eq i32 %30, 36
  br i1 %31, label %32, label %39

32:                                               ; preds = %25
  %33 = load i32, i32* %4, align 4
  %34 = sext i32 %33 to i64
  %35 = getelementptr inbounds [110 x i8], [110 x i8]* @a, i64 0, i64 %34
  store i8 32, i8* %35, align 1
  %36 = load i32, i32* %3, align 4
  %37 = sext i32 %36 to i64
  %38 = getelementptr inbounds [110 x i8], [110 x i8]* @a, i64 0, i64 %37
  store i8 32, i8* %38, align 1
  br label %43

39:                                               ; preds = %25
  br label %40

40:                                               ; preds = %39
  %41 = load i32, i32* %4, align 4
  %42 = add nsw i32 %41, -1
  store i32 %42, i32* %4, align 4
  br label %22

43:                                               ; preds = %32, %22
  br label %44

44:                                               ; preds = %43, %12
  %45 = load i32, i32* %3, align 4
  %46 = add nsw i32 %45, 1
  %47 = call i32 @match(i32 %46)
  store i32 0, i32* %2, align 4
  br label %48

48:                                               ; preds = %44, %11
  %49 = load i32, i32* %2, align 4
  ret i32 %49
}

; Function Attrs: nounwind readonly
declare dso_local i64 @strlen(i8*) #1

; Function Attrs: noinline nounwind uwtable
define dso_local i32 @main() #0 {
  %1 = alloca i32, align 4
  %2 = alloca i32, align 4
  %3 = alloca i32, align 4
  store i32 0, i32* %1, align 4
  br label %4

4:                                                ; preds = %46, %0
  %5 = call i32 (i8*, ...) @__isoc99_scanf(i8* getelementptr inbounds ([3 x i8], [3 x i8]* @.str, i64 0, i64 0), i8* getelementptr inbounds ([110 x i8], [110 x i8]* @a, i64 0, i64 0))
  %6 = icmp ne i32 %5, -1
  br i1 %6, label %7, label %49

7:                                                ; preds = %4
  %8 = call i32 (i8*, ...) @printf(i8* getelementptr inbounds ([4 x i8], [4 x i8]* @.str.1, i64 0, i64 0), i8* getelementptr inbounds ([110 x i8], [110 x i8]* @a, i64 0, i64 0))
  %9 = call i64 @strlen(i8* getelementptr inbounds ([110 x i8], [110 x i8]* @a, i64 0, i64 0)) #3
  %10 = trunc i64 %9 to i32
  store i32 %10, i32* %2, align 4
  store i32 0, i32* %3, align 4
  br label %11

11:                                               ; preds = %43, %7
  %12 = load i32, i32* %3, align 4
  %13 = load i32, i32* %2, align 4
  %14 = icmp slt i32 %12, %13
  br i1 %14, label %15, label %46

15:                                               ; preds = %11
  %16 = load i32, i32* %3, align 4
  %17 = sext i32 %16 to i64
  %18 = getelementptr inbounds [110 x i8], [110 x i8]* @a, i64 0, i64 %17
  %19 = load i8, i8* %18, align 1
  %20 = sext i8 %19 to i32
  %21 = icmp eq i32 %20, 40
  br i1 %21, label %22, label %26

22:                                               ; preds = %15
  %23 = load i32, i32* %3, align 4
  %24 = sext i32 %23 to i64
  %25 = getelementptr inbounds [110 x i8], [110 x i8]* @a, i64 0, i64 %24
  store i8 36, i8* %25, align 1
  br label %42

26:                                               ; preds = %15
  %27 = load i32, i32* %3, align 4
  %28 = sext i32 %27 to i64
  %29 = getelementptr inbounds [110 x i8], [110 x i8]* @a, i64 0, i64 %28
  %30 = load i8, i8* %29, align 1
  %31 = sext i8 %30 to i32
  %32 = icmp eq i32 %31, 41
  br i1 %32, label %33, label %37

33:                                               ; preds = %26
  %34 = load i32, i32* %3, align 4
  %35 = sext i32 %34 to i64
  %36 = getelementptr inbounds [110 x i8], [110 x i8]* @a, i64 0, i64 %35
  store i8 63, i8* %36, align 1
  br label %41

37:                                               ; preds = %26
  %38 = load i32, i32* %3, align 4
  %39 = sext i32 %38 to i64
  %40 = getelementptr inbounds [110 x i8], [110 x i8]* @a, i64 0, i64 %39
  store i8 32, i8* %40, align 1
  br label %41

41:                                               ; preds = %37, %33
  br label %42

42:                                               ; preds = %41, %22
  br label %43

43:                                               ; preds = %42
  %44 = load i32, i32* %3, align 4
  %45 = add nsw i32 %44, 1
  store i32 %45, i32* %3, align 4
  br label %11

46:                                               ; preds = %11
  %47 = call i32 @match(i32 1)
  %48 = call i32 (i8*, ...) @printf(i8* getelementptr inbounds ([4 x i8], [4 x i8]* @.str.1, i64 0, i64 0), i8* getelementptr inbounds ([110 x i8], [110 x i8]* @a, i64 0, i64 0))
  br label %4

49:                                               ; preds = %4
  ret i32 0
}

declare dso_local i32 @__isoc99_scanf(i8*, ...) #2

declare dso_local i32 @printf(i8*, ...) #2


!llvm.module.flags = !{!0}
!llvm.ident = !{!1}

!0 = !{i32 1, !"wchar_size", i32 4}
!1 = !{!"clang version 10.0.0-4ubuntu1 "}
